; Function Attrs: null_pointer_is_valid sspstrong uwtable
define internal i32 @dissect_p1_OrganizationalUnitName(i1 noundef zeroext %0, ptr noundef %1, i32 noundef %2, ptr noundef %3, ptr noundef %4, i32 noundef %5) #0 {
  %7 = alloca ptr, align 8
  call void @llvm.lifetime.start.p0(i64 8, ptr nonnull %7) #5
  store ptr null, ptr %7, align 8
  %8 = call i32 @dissect_ber_constrained_restricted_string(i1 noundef zeroext %0, i32 noundef 19, ptr noundef %3, ptr noundef %4, ptr noundef %1, i32 noundef %2, i32 noundef 1, i32 noundef 32, i32 noundef %5, ptr noundef nonnull %7)
  %9 = load ptr, ptr %7, align 8
  call fastcc void @do_address(ptr noundef nonnull @.str.1646, ptr noundef %9, ptr noundef %3)
  call void @llvm.lifetime.end.p0(i64 8, ptr nonnull %7) #5
  ret i32 %8
}